target datalayout = "e-m:e-p270:32:32-p271:32:32-p272:64:64-i64:64-i128:128-f80:128-n8:16:32:64-S128"
target triple = "x86_64-pc-linux-gnu"

%struct._lv_event_t = type { ptr, ptr, i32, ptr, ptr, ptr, i8 }
%struct._lv_obj_t = type { ptr, ptr, ptr, ptr, ptr, %struct.lv_area_t, i32, i16, i16 }
%struct.lv_area_t = type { i32, i32, i32, i32 }
%struct._lv_obj_spec_attr_t = type { ptr, ptr, %struct.lv_event_list_t, %struct.lv_point_t, i32, i32, i16, i16 }
%struct.lv_event_list_t = type { %struct._lv_array_t, i8 }
%struct._lv_array_t = type { ptr, i32, i32, i32, i8 }
%struct.lv_point_t = type { i32, i32 }
%struct._lv_obj_class_t = type { ptr, ptr, ptr, ptr, ptr, ptr, i32, i32, i32 }

; Function Attrs: nounwind uwtable
define internal zeroext i1 @event_is_bubbled(ptr noundef %0) #0 {
  %2 = alloca i1, align 1
  %3 = alloca ptr, align 8
  store ptr %0, ptr %3, align 8, !tbaa !3
  %4 = load ptr, ptr %3, align 8, !tbaa !3
  %5 = getelementptr inbounds nuw %struct._lv_event_t, ptr %4, i32 0, i32 6
  %6 = load i8, ptr %5, align 8
  %7 = lshr i8 %6, 2
  %8 = and i8 %7, 1
  %9 = icmp ne i8 %8, 0
  br i1 %9, label %10, label %11

10:                                               ; preds = %1
  store i1 false, ptr %2, align 1
  br label %31

11:                                               ; preds = %1
  %12 = load ptr, ptr %3, align 8, !tbaa !3
  %13 = getelementptr inbounds nuw %struct._lv_event_t, ptr %12, i32 0, i32 2
  %14 = load i32, ptr %13, align 8, !tbaa !12
  switch i32 %14, label %16 [
    i32 43, label %15
    i32 44, label %15
  ]

15:                                               ; preds = %11, %11
  store i1 true, ptr %2, align 1
  br label %31

16:                                               ; preds = %11
  br label %17

17:                                               ; preds = %16
  %18 = load ptr, ptr %3, align 8, !tbaa !3
  %19 = getelementptr inbounds nuw %struct._lv_event_t, ptr %18, i32 0, i32 0
  %20 = load ptr, ptr %19, align 8, !tbaa !9
  %21 = call zeroext i1 @lv_obj_has_flag(ptr noundef %20, i32 noundef 16384)
  %22 = zext i1 %21 to i32
  %23 = icmp eq i32 %22, 0
  br i1 %23, label %24, label %25

24:                                               ; preds = %17
  store i1 false, ptr %2, align 1
  br label %31

25:                                               ; preds = %17
  %26 = load ptr, ptr %3, align 8, !tbaa !3
  %27 = getelementptr inbounds nuw %struct._lv_event_t, ptr %26, i32 0, i32 2
  %28 = load i32, ptr %27, align 8, !tbaa !12
  switch i32 %28, label %30 [
    i32 22, label %29
    i32 26, label %29
    i32 27, label %29
    i32 28, label %29
    i32 29, label %29
    i32 30, label %29
    i32 31, label %29
    i32 32, label %29
    i32 33, label %29
    i32 34, label %29
    i32 37, label %29
    i32 41, label %29
    i32 43, label %29
    i32 44, label %29
    i32 42, label %29
    i32 49, label %29
    i32 50, label %29
    i32 52, label %29
  ]

29:                                               ; preds = %25, %25, %25, %25, %25, %25, %25, %25, %25, %25, %25, %25, %25, %25, %25, %25, %25, %25
  store i1 false, ptr %2, align 1
  br label %31

30:                                               ; preds = %25
  store i1 true, ptr %2, align 1
  br label %31

31:                                               ; preds = %30, %29, %24, %15, %10
  %32 = load i1, ptr %2, align 1
  ret i1 %32
}

; Function Attrs: nounwind uwtable
define i32 @lv_obj_event_base(ptr noundef %0, ptr noundef %1) #0 {
  %3 = alloca i32, align 4
  %4 = alloca ptr, align 8
  %5 = alloca ptr, align 8
  %6 = alloca ptr, align 8
  %7 = alloca i32, align 4
  %8 = alloca i32, align 4
  store ptr %0, ptr %4, align 8, !tbaa !3
  store ptr %1, ptr %5, align 8, !tbaa !3
  call void @llvm.lifetime.start.p0(i64 8, ptr %6) #3
  %9 = load ptr, ptr %4, align 8, !tbaa !3
  %10 = icmp eq ptr %9, null
  br i1 %10, label %11, label %17

11:                                               ; preds = %2
  %12 = load ptr, ptr %5, align 8, !tbaa !3
  %13 = getelementptr inbounds nuw %struct._lv_event_t, ptr %12, i32 0, i32 0
  %14 = load ptr, ptr %13, align 8, !tbaa !9
  %15 = getelementptr inbounds nuw %struct._lv_obj_t, ptr %14, i32 0, i32 0
  %16 = load ptr, ptr %15, align 8, !tbaa !19
  store ptr %16, ptr %6, align 8, !tbaa !3
  br label %21

17:                                               ; preds = %2
  %18 = load ptr, ptr %4, align 8, !tbaa !3
  %19 = getelementptr inbounds nuw %struct._lv_obj_class_t, ptr %18, i32 0, i32 0
  %20 = load ptr, ptr %19, align 8, !tbaa !20
  store ptr %20, ptr %6, align 8, !tbaa !3
  br label %21

21:                                               ; preds = %17, %11
  br label %22

22:                                               ; preds = %32, %21
  %23 = load ptr, ptr %6, align 8, !tbaa !3
  %24 = icmp ne ptr %23, null
  br i1 %24, label %25, label %30

25:                                               ; preds = %22
  %26 = load ptr, ptr %6, align 8, !tbaa !3
  %27 = getelementptr inbounds nuw %struct._lv_obj_class_t, ptr %26, i32 0, i32 3
  %28 = load ptr, ptr %27, align 8, !tbaa !22
  %29 = icmp eq ptr %28, null
  br label %30

30:                                               ; preds = %25, %22
  %31 = phi i1 [ false, %22 ], [ %29, %25 ]
  br i1 %31, label %32, label %36

32:                                               ; preds = %30
  %33 = load ptr, ptr %6, align 8, !tbaa !3
  %34 = getelementptr inbounds nuw %struct._lv_obj_class_t, ptr %33, i32 0, i32 0
  %35 = load ptr, ptr %34, align 8, !tbaa !20
  store ptr %35, ptr %6, align 8, !tbaa !3
  br label %22, !llvm.loop !23

36:                                               ; preds = %30
  %37 = load ptr, ptr %6, align 8, !tbaa !3
  %38 = icmp eq ptr %37, null
  br i1 %38, label %39, label %40

39:                                               ; preds = %36
  store i32 1, ptr %3, align 4
  store i32 1, ptr %7, align 4
  br label %62

40:                                               ; preds = %36
  %41 = load ptr, ptr %6, align 8, !tbaa !3
  %42 = getelementptr inbounds nuw %struct._lv_obj_class_t, ptr %41, i32 0, i32 3
  %43 = load ptr, ptr %42, align 8, !tbaa !22
  %44 = icmp eq ptr %43, null
  br i1 %44, label %45, label %46

45:                                               ; preds = %40
  store i32 1, ptr %3, align 4
  store i32 1, ptr %7, align 4
  br label %62

46:                                               ; preds = %40
  %47 = load ptr, ptr %5, align 8, !tbaa !3
  %48 = getelementptr inbounds nuw %struct._lv_event_t, ptr %47, i32 0, i32 3
  store ptr null, ptr %48, align 8, !tbaa !13
  %49 = load ptr, ptr %6, align 8, !tbaa !3
  %50 = getelementptr inbounds nuw %struct._lv_obj_class_t, ptr %49, i32 0, i32 3
  %51 = load ptr, ptr %50, align 8, !tbaa !22
  %52 = load ptr, ptr %6, align 8, !tbaa !3
  %53 = load ptr, ptr %5, align 8, !tbaa !3
  call void %51(ptr noundef %52, ptr noundef %53)
  call void @llvm.lifetime.start.p0(i64 4, ptr %8) #3
  store i32 1, ptr %8, align 4, !tbaa !7
  %54 = load ptr, ptr %5, align 8, !tbaa !3
  %55 = getelementptr inbounds nuw %struct._lv_event_t, ptr %54, i32 0, i32 6
  %56 = load i8, ptr %55, align 8
  %57 = and i8 %56, 1
  %58 = icmp ne i8 %57, 0
  br i1 %58, label %59, label %60

59:                                               ; preds = %46
  store i32 0, ptr %8, align 4, !tbaa !7
  br label %60

60:                                               ; preds = %59, %46
  %61 = load i32, ptr %8, align 4, !tbaa !7
  store i32 %61, ptr %3, align 4
  store i32 1, ptr %7, align 4
  call void @llvm.lifetime.end.p0(i64 4, ptr %8) #3
  br label %62

62:                                               ; preds = %60, %45, %39
  call void @llvm.lifetime.end.p0(i64 8, ptr %6) #3
  %63 = load i32, ptr %3, align 4
  ret i32 %63
}

; Function Attrs: nounwind uwtable
define internal i32 @event_send_core(ptr noundef %0) #0 {
  %2 = alloca i32, align 4
  %3 = alloca ptr, align 8
  %4 = alloca ptr, align 8
  %5 = alloca i32, align 4
  %6 = alloca ptr, align 8
  %7 = alloca i32, align 4
  %8 = alloca ptr, align 8
  %9 = alloca ptr, align 8
  store ptr %0, ptr %3, align 8, !tbaa !3
  call void @llvm.lifetime.start.p0(i64 8, ptr %4) #3
  %10 = call ptr @lv_indev_active()
  store ptr %10, ptr %4, align 8, !tbaa !3
  %11 = load ptr, ptr %4, align 8, !tbaa !3
  %12 = icmp ne ptr %11, null
  br i1 %12, label %13, label %29

13:                                               ; preds = %1
  %14 = load ptr, ptr %3, align 8, !tbaa !3
  %15 = getelementptr inbounds nuw %struct._lv_event_t, ptr %14, i32 0, i32 6
  %16 = load i8, ptr %15, align 8
  %17 = lshr i8 %16, 1
  %18 = and i8 %17, 1
  %19 = icmp ne i8 %18, 0
  br i1 %19, label %20, label %21

20:                                               ; preds = %13
  store i32 1, ptr %2, align 4
  store i32 1, ptr %5, align 4
  br label %132

21:                                               ; preds = %13
  %22 = load ptr, ptr %3, align 8, !tbaa !3
  %23 = getelementptr inbounds nuw %struct._lv_event_t, ptr %22, i32 0, i32 6
  %24 = load i8, ptr %23, align 8
  %25 = and i8 %24, 1
  %26 = icmp ne i8 %25, 0
  br i1 %26, label %27, label %28

27:                                               ; preds = %21
  store i32 0, ptr %2, align 4
  store i32 1, ptr %5, align 4
  br label %132

28:                                               ; preds = %21
  br label %29

29:                                               ; preds = %28, %1
  call void @llvm.lifetime.start.p0(i64 8, ptr %6) #3
  %30 = load ptr, ptr %3, align 8, !tbaa !3
  %31 = getelementptr inbounds nuw %struct._lv_event_t, ptr %30, i32 0, i32 0
  %32 = load ptr, ptr %31, align 8, !tbaa !9
  store ptr %32, ptr %6, align 8, !tbaa !3
  call void @llvm.lifetime.start.p0(i64 4, ptr %7) #3
  store i32 1, ptr %7, align 4, !tbaa !7
  call void @llvm.lifetime.start.p0(i64 8, ptr %8) #3
  %33 = load ptr, ptr %6, align 8, !tbaa !3
  %34 = getelementptr inbounds nuw %struct._lv_obj_t, ptr %33, i32 0, i32 2
  %35 = load ptr, ptr %34, align 8, !tbaa !15
  %36 = icmp ne ptr %35, null
  br i1 %36, label %37, label %42

37:                                               ; preds = %29
  %38 = load ptr, ptr %6, align 8, !tbaa !3
  %39 = getelementptr inbounds nuw %struct._lv_obj_t, ptr %38, i32 0, i32 2
  %40 = load ptr, ptr %39, align 8, !tbaa !15
  %41 = getelementptr inbounds nuw %struct._lv_obj_spec_attr_t, ptr %40, i32 0, i32 2
  br label %43

42:                                               ; preds = %29
  br label %43

43:                                               ; preds = %42, %37
  %44 = phi ptr [ %41, %37 ], [ null, %42 ]
  store ptr %44, ptr %8, align 8, !tbaa !3
  %45 = load ptr, ptr %8, align 8, !tbaa !3
  %46 = load ptr, ptr %3, align 8, !tbaa !3
  %47 = call i32 @lv_event_send(ptr noundef %45, ptr noundef %46, i1 noundef zeroext true)
  store i32 %47, ptr %7, align 4, !tbaa !7
  %48 = load i32, ptr %7, align 4, !tbaa !7
  %49 = icmp ne i32 %48, 1
  br i1 %49, label %58, label %50

50:                                               ; preds = %43
  %51 = load ptr, ptr %3, align 8, !tbaa !3
  %52 = getelementptr inbounds nuw %struct._lv_event_t, ptr %51, i32 0, i32 6
  %53 = load i8, ptr %52, align 8
  %54 = lshr i8 %53, 1
  %55 = and i8 %54, 1
  %56 = zext i8 %55 to i32
  %57 = icmp ne i32 %56, 0
  br i1 %57, label %58, label %60

58:                                               ; preds = %50, %43
  %59 = load i32, ptr %7, align 4, !tbaa !7
  store i32 %59, ptr %2, align 4
  store i32 1, ptr %5, align 4
  br label %131

60:                                               ; preds = %50
  %61 = load ptr, ptr %3, align 8, !tbaa !3
  %62 = call i32 @lv_obj_event_base(ptr noundef null, ptr noundef %61)
  store i32 %62, ptr %7, align 4, !tbaa !7
  %63 = load i32, ptr %7, align 4, !tbaa !7
  %64 = icmp ne i32 %63, 1
  br i1 %64, label %73, label %65

65:                                               ; preds = %60
  %66 = load ptr, ptr %3, align 8, !tbaa !3
  %67 = getelementptr inbounds nuw %struct._lv_event_t, ptr %66, i32 0, i32 6
  %68 = load i8, ptr %67, align 8
  %69 = lshr i8 %68, 1
  %70 = and i8 %69, 1
  %71 = zext i8 %70 to i32
  %72 = icmp ne i32 %71, 0
  br i1 %72, label %73, label %75

73:                                               ; preds = %65, %60
  %74 = load i32, ptr %7, align 4, !tbaa !7
  store i32 %74, ptr %2, align 4
  store i32 1, ptr %5, align 4
  br label %131

75:                                               ; preds = %65
  %76 = load ptr, ptr %8, align 8, !tbaa !3
  %77 = load ptr, ptr %3, align 8, !tbaa !3
  %78 = call i32 @lv_event_send(ptr noundef %76, ptr noundef %77, i1 noundef zeroext false)
  store i32 %78, ptr %7, align 4, !tbaa !7
  %79 = load i32, ptr %7, align 4, !tbaa !7
  %80 = icmp ne i32 %79, 1
  br i1 %80, label %89, label %81

81:                                               ; preds = %75
  %82 = load ptr, ptr %3, align 8, !tbaa !3
  %83 = getelementptr inbounds nuw %struct._lv_event_t, ptr %82, i32 0, i32 6
  %84 = load i8, ptr %83, align 8
  %85 = lshr i8 %84, 1
  %86 = and i8 %85, 1
  %87 = zext i8 %86 to i32
  %88 = icmp ne i32 %87, 0
  br i1 %88, label %89, label %91

89:                                               ; preds = %81, %75
  %90 = load i32, ptr %7, align 4, !tbaa !7
  store i32 %90, ptr %2, align 4
  store i32 1, ptr %5, align 4
  br label %131

91:                                               ; preds = %81
  call void @llvm.lifetime.start.p0(i64 8, ptr %9) #3
  %92 = load ptr, ptr %3, align 8, !tbaa !3
  %93 = getelementptr inbounds nuw %struct._lv_event_t, ptr %92, i32 0, i32 0
  %94 = load ptr, ptr %93, align 8, !tbaa !9
  %95 = call ptr @lv_obj_get_parent(ptr noundef %94)
  store ptr %95, ptr %9, align 8, !tbaa !3
  %96 = load ptr, ptr %9, align 8, !tbaa !3
  %97 = icmp ne ptr %96, null
  br i1 %97, label %98, label %128

98:                                               ; preds = %91
  %99 = load ptr, ptr %3, align 8, !tbaa !3
  %100 = call zeroext i1 @event_is_bubbled(ptr noundef %99)
  br i1 %100, label %101, label %128

101:                                              ; preds = %98
  %102 = load ptr, ptr %9, align 8, !tbaa !3
  %103 = load ptr, ptr %3, align 8, !tbaa !3
  %104 = getelementptr inbounds nuw %struct._lv_event_t, ptr %103, i32 0, i32 0
  store ptr %102, ptr %104, align 8, !tbaa !9
  %105 = load ptr, ptr %3, align 8, !tbaa !3
  %106 = call i32 @event_send_core(ptr noundef %105)
  store i32 %106, ptr %7, align 4, !tbaa !7
  %107 = load i32, ptr %7, align 4, !tbaa !7
  %108 = icmp ne i32 %107, 1
  br i1 %108, label %125, label %109

109:                                              ; preds = %101
  %110 = load ptr, ptr %3, align 8, !tbaa !3
  %111 = getelementptr inbounds nuw %struct._lv_event_t, ptr %110, i32 0, i32 6
  %112 = load i8, ptr %111, align 8
  %113 = lshr i8 %112, 1
  %114 = and i8 %113, 1
  %115 = zext i8 %114 to i32
  %116 = icmp ne i32 %115, 0
  br i1 %116, label %125, label %117

117:                                              ; preds = %109
  %118 = load ptr, ptr %3, align 8, !tbaa !3
  %119 = getelementptr inbounds nuw %struct._lv_event_t, ptr %118, i32 0, i32 6
  %120 = load i8, ptr %119, align 8
  %121 = lshr i8 %120, 2
  %122 = and i8 %121, 1
  %123 = zext i8 %122 to i32
  %124 = icmp ne i32 %123, 0
  br i1 %124, label %125, label %127

125:                                              ; preds = %117, %109, %101
  %126 = load i32, ptr %7, align 4, !tbaa !7
  store i32 %126, ptr %2, align 4
  store i32 1, ptr %5, align 4
  br label %130

127:                                              ; preds = %117
  br label %128

128:                                              ; preds = %127, %98, %91
  %129 = load i32, ptr %7, align 4, !tbaa !7
  store i32 %129, ptr %2, align 4
  store i32 1, ptr %5, align 4
  br label %130

130:                                              ; preds = %128, %125
  call void @llvm.lifetime.end.p0(i64 8, ptr %9) #3
  br label %131

131:                                              ; preds = %130, %89, %73, %58
  call void @llvm.lifetime.end.p0(i64 8, ptr %8) #3
  call void @llvm.lifetime.end.p0(i64 4, ptr %7) #3
  call void @llvm.lifetime.end.p0(i64 8, ptr %6) #3
  br label %132

132:                                              ; preds = %131, %27, %20
  call void @llvm.lifetime.end.p0(i64 8, ptr %4) #3
  %133 = load i32, ptr %2, align 4
  ret i32 %133
}

; Function Attrs: nounwind uwtable
define i32 @lv_obj_send_event(ptr noundef %0, i32 noundef %1, ptr noundef %2) #0 {
  %4 = alloca i32, align 4
  %5 = alloca ptr, align 8
  %6 = alloca i32, align 4
  %7 = alloca ptr, align 8
  %8 = alloca %struct._lv_event_t, align 8
  %9 = alloca i32, align 4
  store ptr %0, ptr %5, align 8, !tbaa !3
  store i32 %1, ptr %6, align 4, !tbaa !7
  store ptr %2, ptr %7, align 8, !tbaa !3
  %10 = load ptr, ptr %5, align 8, !tbaa !3
  %11 = icmp eq ptr %10, null
  br i1 %11, label %12, label %13

12:                                               ; preds = %3
  store i32 1, ptr %4, align 4
  br label %39

13:                                               ; preds = %3
  br label %14

14:                                               ; preds = %13
  br label %15

15:                                               ; preds = %14
  call void @llvm.lifetime.start.p0(i64 56, ptr %8) #3
  %16 = load ptr, ptr %5, align 8, !tbaa !3
  %17 = getelementptr inbounds nuw %struct._lv_event_t, ptr %8, i32 0, i32 0
  store ptr %16, ptr %17, align 8, !tbaa !9
  %18 = load ptr, ptr %5, align 8, !tbaa !3
  %19 = getelementptr inbounds nuw %struct._lv_event_t, ptr %8, i32 0, i32 1
  store ptr %18, ptr %19, align 8, !tbaa !11
  %20 = load i32, ptr %6, align 4, !tbaa !7
  %21 = getelementptr inbounds nuw %struct._lv_event_t, ptr %8, i32 0, i32 2
  store i32 %20, ptr %21, align 8, !tbaa !12
  %22 = getelementptr inbounds nuw %struct._lv_event_t, ptr %8, i32 0, i32 3
  store ptr null, ptr %22, align 8, !tbaa !13
  %23 = load ptr, ptr %7, align 8, !tbaa !3
  %24 = getelementptr inbounds nuw %struct._lv_event_t, ptr %8, i32 0, i32 4
  store ptr %23, ptr %24, align 8, !tbaa !14
  %25 = getelementptr inbounds nuw %struct._lv_event_t, ptr %8, i32 0, i32 6
  %26 = load i8, ptr %25, align 8
  %27 = and i8 %26, -2
  %28 = or i8 %27, 0
  store i8 %28, ptr %25, align 8
  %29 = getelementptr inbounds nuw %struct._lv_event_t, ptr %8, i32 0, i32 6
  %30 = load i8, ptr %29, align 8
  %31 = and i8 %30, -5
  %32 = or i8 %31, 0
  store i8 %32, ptr %29, align 8
  %33 = getelementptr inbounds nuw %struct._lv_event_t, ptr %8, i32 0, i32 6
  %34 = load i8, ptr %33, align 8
  %35 = and i8 %34, -3
  %36 = or i8 %35, 0
  store i8 %36, ptr %33, align 8
  call void @lv_event_push(ptr noundef %8)
  call void @llvm.lifetime.start.p0(i64 4, ptr %9) #3
  %37 = call i32 @event_send_core(ptr noundef %8)
  store i32 %37, ptr %9, align 4, !tbaa !7
  call void @lv_event_pop(ptr noundef %8)
  %38 = load i32, ptr %9, align 4, !tbaa !7
  store i32 %38, ptr %4, align 4
  call void @llvm.lifetime.end.p0(i64 4, ptr %9) #3
  call void @llvm.lifetime.end.p0(i64 56, ptr %8) #3
  br label %39

39:                                               ; preds = %15, %12
  %40 = load i32, ptr %4, align 4
  ret i32 %40
}