; Function Attrs: nounwind uwtable
define i32 @lv_obj_send_event(ptr noundef %0, i32 noundef %1, ptr noundef %2) local_unnamed_addr #0 {
  %4 = alloca %struct._lv_event_t, align 8
  %5 = icmp eq ptr %0, null
  br i1 %5, label %57, label %6

6:                                                ; preds = %3
  call void @llvm.lifetime.start.p0(i64 56, ptr nonnull %4) #4
  store ptr %0, ptr %4, align 8, !tbaa !3
  %7 = getelementptr inbounds nuw i8, ptr %4, i64 8
  store ptr %0, ptr %7, align 8, !tbaa !9
  %8 = getelementptr inbounds nuw i8, ptr %4, i64 16
  store i32 %1, ptr %8, align 8, !tbaa !10
  %9 = getelementptr inbounds nuw i8, ptr %4, i64 24
  store ptr null, ptr %9, align 8, !tbaa !11
  %10 = getelementptr inbounds nuw i8, ptr %4, i64 32
  store ptr %2, ptr %10, align 8, !tbaa !12
  %11 = getelementptr inbounds nuw i8, ptr %4, i64 48
  store i8 0, ptr %11, align 8
  call void @lv_event_push(ptr noundef nonnull %4) #4
  br label %tailrecurse.i

tailrecurse.i:                                    ; preds = %event_is_bubbled.exit, %6
  %12 = call ptr @lv_indev_active() #4
  %.not.i = icmp eq ptr %12, null
  br i1 %.not.i, label %18, label %13

13:                                               ; preds = %tailrecurse.i
  %14 = load i8, ptr %11, align 8
  %15 = and i8 %14, 2
  %.not36.i = icmp eq i8 %15, 0
  br i1 %.not36.i, label %16, label %event_send_core.exit

16:                                               ; preds = %13
  %17 = and i8 %14, 1
  %.not37.i = icmp eq i8 %17, 0
  br i1 %.not37.i, label %18, label %event_send_core.exit

18:                                               ; preds = %16, %tailrecurse.i
  %19 = load ptr, ptr %4, align 8, !tbaa !3
  %20 = getelementptr inbounds nuw i8, ptr %19, i64 16
  %21 = load ptr, ptr %20, align 8, !tbaa !13
  %.not38.i = icmp eq ptr %21, null
  %22 = getelementptr inbounds nuw i8, ptr %21, i64 16
  %spec.select.i = select i1 %.not38.i, ptr null, ptr %22
  %23 = call i32 @lv_event_send(ptr noundef %spec.select.i, ptr noundef nonnull %4, i1 noundef zeroext true) #4
  %.not39.i = icmp eq i32 %23, 1
  br i1 %.not39.i, label %24, label %event_send_core.exit

24:                                               ; preds = %18
  %25 = load i8, ptr %11, align 8
  %26 = and i8 %25, 2
  %.not40.i = icmp eq i8 %26, 0
  br i1 %.not40.i, label %27, label %event_send_core.exit

27:                                               ; preds = %24
  %28 = load ptr, ptr %4, align 8, !tbaa !3
  br label %29

29:                                               ; preds = %30, %27
  %.1.in.i.i = phi ptr [ %28, %27 ], [ %.1.i.i, %30 ]
  %.1.i.i = load ptr, ptr %.1.in.i.i, align 8, !tbaa !17
  %cond.i.i = icmp eq ptr %.1.i.i, null
  br i1 %cond.i.i, label %lv_obj_event_base.exit.thread.i, label %30

30:                                               ; preds = %29
  %31 = getelementptr inbounds nuw i8, ptr %.1.i.i, i64 24
  %32 = load ptr, ptr %31, align 8, !tbaa !18
  %33 = icmp eq ptr %32, null
  br i1 %33, label %29, label %lv_obj_event_base.exit.i, !llvm.loop !20

lv_obj_event_base.exit.i:                         ; preds = %30
  store ptr null, ptr %9, align 8, !tbaa !11
  call void %32(ptr noundef nonnull %.1.i.i, ptr noundef nonnull %4) #4
  %34 = load i8, ptr %11, align 8
  %35 = and i8 %34, 1
  %.not41.not.not.i = icmp eq i8 %35, 0
  br i1 %.not41.not.not.i, label %lv_obj_event_base.exit.thread.i, label %event_send_core.exit

lv_obj_event_base.exit.thread.i:                  ; preds = %29, %lv_obj_event_base.exit.i
  %36 = phi i8 [ %34, %lv_obj_event_base.exit.i ], [ %25, %29 ]
  %37 = and i8 %36, 2
  %.not42.i = icmp eq i8 %37, 0
  br i1 %.not42.i, label %38, label %event_send_core.exit

38:                                               ; preds = %lv_obj_event_base.exit.thread.i
  %39 = call i32 @lv_event_send(ptr noundef %spec.select.i, ptr noundef nonnull %4, i1 noundef zeroext false) #4
  %.not43.i = icmp eq i32 %39, 1
  br i1 %.not43.i, label %40, label %event_send_core.exit

40:                                               ; preds = %38
  %41 = load i8, ptr %11, align 8
  %42 = and i8 %41, 2
  %.not44.i = icmp eq i8 %42, 0
  br i1 %.not44.i, label %43, label %event_send_core.exit

43:                                               ; preds = %40
  %44 = load ptr, ptr %4, align 8, !tbaa !3
  %45 = call ptr @lv_obj_get_parent(ptr noundef %44) #4
  %.not45.i = icmp eq ptr %45, null
  br i1 %.not45.i, label %event_send_core.exit, label %46

46:                                               ; preds = %43
  %47 = load i8, ptr %11, align 8
  %48 = and i8 %47, 4
  %.not.i7 = icmp eq i8 %48, 0
  br i1 %.not.i7, label %49, label %event_send_core.exit

49:                                               ; preds = %46
  %50 = load i32, ptr %8, align 8, !tbaa !10
  %.off.i = add i32 %50, -43
  %switch.i = icmp ult i32 %.off.i, 2
  br i1 %switch.i, label %event_is_bubbled.exit, label %51

51:                                               ; preds = %49
  %52 = load ptr, ptr %4, align 8, !tbaa !3
  %53 = call zeroext i1 @lv_obj_has_flag(ptr noundef %52, i32 noundef 16384) #4
  br i1 %53, label %54, label %event_send_core.exit

54:                                               ; preds = %51
  %55 = load i32, ptr %8, align 8, !tbaa !10
  %switch.tableidx = add i32 %55, -22
  %56 = icmp ult i32 %switch.tableidx, 31
  br i1 %56, label %switch.hole_check, label %event_is_bubbled.exit

event_is_bubbled.exit:                            ; preds = %switch.hole_check, %54, %49
  store ptr %45, ptr %4, align 8, !tbaa !3
  br label %tailrecurse.i

switch.hole_check:                                ; preds = %54
  %switch.shifted = lshr i32 1484300273, %switch.tableidx
  %switch.lobit = trunc i32 %switch.shifted to i1
  br i1 %switch.lobit, label %event_send_core.exit, label %event_is_bubbled.exit

event_send_core.exit:                             ; preds = %switch.hole_check, %51, %46, %13, %16, %18, %24, %lv_obj_event_base.exit.i, %lv_obj_event_base.exit.thread.i, %38, %40, %43
  %.0.i = phi i32 [ 1, %13 ], [ 0, %16 ], [ 1, %24 ], [ %23, %18 ], [ 1, %lv_obj_event_base.exit.thread.i ], [ 0, %lv_obj_event_base.exit.i ], [ 1, %40 ], [ %39, %38 ], [ 1, %43 ], [ 1, %46 ], [ 1, %51 ], [ 1, %switch.hole_check ]
  call void @lv_event_pop(ptr noundef nonnull %4) #4
  call void @llvm.lifetime.end.p0(i64 56, ptr nonnull %4) #4
  br label %57

57:                                               ; preds = %3, %event_send_core.exit
  %.0 = phi i32 [ %.0.i, %event_send_core.exit ], [ 1, %3 ]
  ret i32 %.0
}